; Function Attrs: mustprogress nounwind uwtable
define void @_ZN6icu_7511Formattable7setDateEd(ptr nocapture noundef nonnull align 8 dereferenceable(112) %this, double noundef %d) local_unnamed_addr #0 align 2 {
entry:
  tail call void @_ZN6icu_7511Formattable7disposeEv(ptr noundef nonnull align 8 dereferenceable(112) %this)
  %fType = getelementptr inbounds i8, ptr %this, i64 40
  store i32 0, ptr %fType, align 8
  %fValue = getelementptr inbounds i8, ptr %this, i64 8
  store double %d, ptr %fValue, align 8
  ret void
}